; ModuleID = '24/919.c'
source_filename = "24/919.c"
target datalayout = "e-m:e-p270:32:32-p271:32:32-p272:64:64-i64:64-f80:128-n8:16:32:64-S128"
target triple = "x86_64-pc-linux-gnu"

@.str = private unnamed_addr constant [6 x i8] c"%s\0A%s\00", align 1

; Function Attrs: noinline nounwind uwtable
define dso_local void @main() #0 {
  %1 = alloca i32, align 4
  %2 = alloca i32, align 4
  %3 = alloca i32, align 4
  %4 = alloca i32, align 4
  %5 = alloca i32, align 4
  %6 = alloca i32, align 4
  %7 = alloca i32, align 4
  %8 = alloca [100 x i32], align 16
  %9 = alloca [1000 x i8], align 16
  %10 = alloca i8*, align 8
  %11 = alloca [100 x [100 x i8]], align 16
  %12 = alloca [100 x i8]*, align 8
  store i32 0, i32* %2, align 4
  store i32 0, i32* %3, align 4
  store i32 0, i32* %4, align 4
  store i32 0, i32* %5, align 4
  %13 = bitcast [100 x i32]* %8 to i8*
  call void @llvm.memset.p0i8.i64(i8* align 16 %13, i8 0, i64 400, i1 false)
  %14 = bitcast [1000 x i8]* %9 to i8*
  call void @llvm.memset.p0i8.i64(i8* align 16 %14, i8 0, i64 1000, i1 false)
  %15 = bitcast [100 x [100 x i8]]* %11 to i8*
  call void @llvm.memset.p0i8.i64(i8* align 16 %15, i8 0, i64 10000, i1 false)
  %16 = getelementptr inbounds [1000 x i8], [1000 x i8]* %9, i64 0, i64 0
  %17 = call i32 (i8*, ...) bitcast (i32 (...)* @gets to i32 (i8*, ...)*)(i8* %16)
  %18 = getelementptr inbounds [1000 x i8], [1000 x i8]* %9, i64 0, i64 0
  store i8* %18, i8** %10, align 8
  br label %19

19:                                               ; preds = %61, %0
  %20 = load i8*, i8** %10, align 8
  %21 = load i8, i8* %20, align 1
  %22 = sext i8 %21 to i32
  %23 = icmp ne i32 %22, 0
  br i1 %23, label %24, label %64

24:                                               ; preds = %19
  %25 = load i8*, i8** %10, align 8
  %26 = load i8, i8* %25, align 1
  %27 = sext i8 %26 to i32
  %28 = icmp eq i32 %27, 32
  br i1 %28, label %29, label %32

29:                                               ; preds = %24
  store i32 0, i32* %2, align 4
  %30 = load i32, i32* %3, align 4
  %31 = add nsw i32 %30, 1
  store i32 %31, i32* %3, align 4
  br label %32

32:                                               ; preds = %29, %24
  %33 = load i8*, i8** %10, align 8
  %34 = load i8, i8* %33, align 1
  %35 = sext i8 %34 to i32
  %36 = icmp ne i32 %35, 32
  br i1 %36, label %37, label %60

37:                                               ; preds = %32
  %38 = getelementptr inbounds [100 x i32], [100 x i32]* %8, i64 0, i64 0
  %39 = load i32, i32* %3, align 4
  %40 = sext i32 %39 to i64
  %41 = getelementptr inbounds i32, i32* %38, i64 %40
  %42 = load i32, i32* %41, align 4
  %43 = add nsw i32 %42, 1
  %44 = getelementptr inbounds [100 x i32], [100 x i32]* %8, i64 0, i64 0
  %45 = load i32, i32* %3, align 4
  %46 = sext i32 %45 to i64
  %47 = getelementptr inbounds i32, i32* %44, i64 %46
  store i32 %43, i32* %47, align 4
  %48 = load i8*, i8** %10, align 8
  %49 = load i8, i8* %48, align 1
  %50 = getelementptr inbounds [100 x [100 x i8]], [100 x [100 x i8]]* %11, i64 0, i64 0
  %51 = load i32, i32* %3, align 4
  %52 = sext i32 %51 to i64
  %53 = getelementptr inbounds [100 x i8], [100 x i8]* %50, i64 %52
  %54 = getelementptr inbounds [100 x i8], [100 x i8]* %53, i64 0, i64 0
  %55 = load i32, i32* %2, align 4
  %56 = sext i32 %55 to i64
  %57 = getelementptr inbounds i8, i8* %54, i64 %56
  store i8 %49, i8* %57, align 1
  %58 = load i32, i32* %2, align 4
  %59 = add nsw i32 %58, 1
  store i32 %59, i32* %2, align 4
  br label %60

60:                                               ; preds = %37, %32
  br label %61

61:                                               ; preds = %60
  %62 = load i8*, i8** %10, align 8
  %63 = getelementptr inbounds i8, i8* %62, i32 1
  store i8* %63, i8** %10, align 8
  br label %19

64:                                               ; preds = %19
  %65 = getelementptr inbounds [100 x i32], [100 x i32]* %8, i64 0, i64 0
  %66 = load i32, i32* %65, align 16
  store i32 %66, i32* %6, align 4
  %67 = getelementptr inbounds [100 x i32], [100 x i32]* %8, i64 0, i64 0
  %68 = load i32, i32* %67, align 16
  store i32 %68, i32* %7, align 4
  store i32 0, i32* %1, align 4
  br label %69

69:                                               ; preds = %104, %64
  %70 = load i32, i32* %1, align 4
  %71 = load i32, i32* %3, align 4
  %72 = icmp sle i32 %70, %71
  br i1 %72, label %73, label %107

73:                                               ; preds = %69
  %74 = load i32, i32* %6, align 4
  %75 = getelementptr inbounds [100 x i32], [100 x i32]* %8, i64 0, i64 0
  %76 = load i32, i32* %1, align 4
  %77 = sext i32 %76 to i64
  %78 = getelementptr inbounds i32, i32* %75, i64 %77
  %79 = load i32, i32* %78, align 4
  %80 = icmp slt i32 %74, %79
  br i1 %80, label %81, label %88

81:                                               ; preds = %73
  %82 = getelementptr inbounds [100 x i32], [100 x i32]* %8, i64 0, i64 0
  %83 = load i32, i32* %1, align 4
  %84 = sext i32 %83 to i64
  %85 = getelementptr inbounds i32, i32* %82, i64 %84
  %86 = load i32, i32* %85, align 4
  store i32 %86, i32* %6, align 4
  %87 = load i32, i32* %1, align 4
  store i32 %87, i32* %5, align 4
  br label %88

88:                                               ; preds = %81, %73
  %89 = load i32, i32* %7, align 4
  %90 = getelementptr inbounds [100 x i32], [100 x i32]* %8, i64 0, i64 0
  %91 = load i32, i32* %1, align 4
  %92 = sext i32 %91 to i64
  %93 = getelementptr inbounds i32, i32* %90, i64 %92
  %94 = load i32, i32* %93, align 4
  %95 = icmp sgt i32 %89, %94
  br i1 %95, label %96, label %103

96:                                               ; preds = %88
  %97 = getelementptr inbounds [100 x i32], [100 x i32]* %8, i64 0, i64 0
  %98 = load i32, i32* %1, align 4
  %99 = sext i32 %98 to i64
  %100 = getelementptr inbounds i32, i32* %97, i64 %99
  %101 = load i32, i32* %100, align 4
  store i32 %101, i32* %7, align 4
  %102 = load i32, i32* %1, align 4
  store i32 %102, i32* %4, align 4
  br label %103

103:                                              ; preds = %96, %88
  br label %104

104:                                              ; preds = %103
  %105 = load i32, i32* %1, align 4
  %106 = add nsw i32 %105, 1
  store i32 %106, i32* %1, align 4
  br label %69

107:                                              ; preds = %69
  %108 = getelementptr inbounds [100 x [100 x i8]], [100 x [100 x i8]]* %11, i64 0, i64 0
  store [100 x i8]* %108, [100 x i8]** %12, align 8
  %109 = load [100 x i8]*, [100 x i8]** %12, align 8
  %110 = load i32, i32* %5, align 4
  %111 = sext i32 %110 to i64
  %112 = getelementptr inbounds [100 x i8], [100 x i8]* %109, i64 %111
  %113 = getelementptr inbounds [100 x i8], [100 x i8]* %112, i64 0, i64 0
  %114 = load [100 x i8]*, [100 x i8]** %12, align 8
  %115 = load i32, i32* %4, align 4
  %116 = sext i32 %115 to i64
  %117 = getelementptr inbounds [100 x i8], [100 x i8]* %114, i64 %116
  %118 = getelementptr inbounds [100 x i8], [100 x i8]* %117, i64 0, i64 0
  %119 = call i32 (i8*, ...) @printf(i8* getelementptr inbounds ([6 x i8], [6 x i8]* @.str, i64 0, i64 0), i8* %113, i8* %118)
  ret void
}

; Function Attrs: argmemonly nounwind willreturn
declare void @llvm.memset.p0i8.i64(i8* nocapture writeonly, i8, i64, i1 immarg) #1

declare dso_local i32 @gets(...) #2

declare dso_local i32 @printf(i8*, ...) #2


!llvm.module.flags = !{!0}
!llvm.ident = !{!1}

!0 = !{i32 1, !"wchar_size", i32 4}
!1 = !{!"clang version 10.0.0-4ubuntu1 "}
